; Function Attrs: mustprogress nofree nounwind uwtable
define void @_ZN8FindFileD2Ev(ptr noundef nonnull readonly align 8 captures(none) dereferenceable(8208) %0) unnamed_addr #1 align 2 personality ptr @__gxx_personality_v0 {
  %2 = getelementptr inbounds nuw i8, ptr %0, i64 8200
  %3 = load ptr, ptr %2, align 8, !tbaa !12
  %.not = icmp eq ptr %3, null
  br i1 %.not, label %6, label %4

4:                                                ; preds = %1
  %5 = tail call i32 @closedir(ptr noundef nonnull %3)
  br label %6

6:                                                ; preds = %4, %1
  ret void
}